target datalayout = "e-m:e-p270:32:32-p271:32:32-p272:64:64-i64:64-i128:128-f80:128-n8:16:32:64-S128"
target triple = "x86_64-pc-linux-gnu"

@ExecutorEnd_hook = dso_local global ptr null, align 8

; Function Attrs: nounwind uwtable
define dso_local void @ExecutorEnd(ptr noundef %0) #0 {
  %2 = alloca ptr, align 8
  store ptr %0, ptr %2, align 8
  %3 = load ptr, ptr @ExecutorEnd_hook, align 8
  %4 = icmp ne ptr %3, null
  br i1 %4, label %5, label %8

5:                                                ; preds = %1
  %6 = load ptr, ptr @ExecutorEnd_hook, align 8
  %7 = load ptr, ptr %2, align 8
  call void %6(ptr noundef %7)
  br label %10

8:                                                ; preds = %1
  %9 = load ptr, ptr %2, align 8
  call void @standard_ExecutorEnd(ptr noundef %9)
  br label %10

10:                                               ; preds = %8, %5
  ret void
}